; ModuleID = '16/1148.c'
source_filename = "16/1148.c"
target datalayout = "e-m:e-p270:32:32-p271:32:32-p272:64:64-i64:64-f80:128-n8:16:32:64-S128"
target triple = "x86_64-pc-linux-gnu"

@.str = private unnamed_addr constant [3 x i8] c"%d\00", align 1
@.str.1 = private unnamed_addr constant [5 x i8] c"%d%d\00", align 1
@.str.2 = private unnamed_addr constant [7 x i8] c"%d%d%d\00", align 1
@.str.3 = private unnamed_addr constant [9 x i8] c"%d%d%d%d\00", align 1

; Function Attrs: noinline nounwind uwtable
define dso_local i32 @main() #0 {
  %1 = alloca i32, align 4
  %2 = alloca i32, align 4
  %3 = alloca i32, align 4
  %4 = alloca i32, align 4
  %5 = alloca i32, align 4
  %6 = alloca i32, align 4
  store i32 0, i32* %1, align 4
  %7 = call i32 (i8*, ...) @__isoc99_scanf(i8* getelementptr inbounds ([3 x i8], [3 x i8]* @.str, i64 0, i64 0), i32* %2)
  %8 = load i32, i32* %2, align 4
  %9 = srem i32 %8, 10
  store i32 %9, i32* %3, align 4
  %10 = load i32, i32* %2, align 4
  %11 = icmp slt i32 %10, 10
  br i1 %11, label %12, label %15

12:                                               ; preds = %0
  %13 = load i32, i32* %3, align 4
  %14 = call i32 (i8*, ...) @printf(i8* getelementptr inbounds ([3 x i8], [3 x i8]* @.str, i64 0, i64 0), i32 %13)
  br label %66

15:                                               ; preds = %0
  %16 = load i32, i32* %2, align 4
  %17 = icmp sgt i32 %16, 9
  br i1 %17, label %18, label %27

18:                                               ; preds = %15
  %19 = load i32, i32* %2, align 4
  %20 = icmp slt i32 %19, 100
  br i1 %20, label %21, label %27

21:                                               ; preds = %18
  %22 = load i32, i32* %2, align 4
  %23 = sdiv i32 %22, 10
  store i32 %23, i32* %4, align 4
  %24 = load i32, i32* %3, align 4
  %25 = load i32, i32* %4, align 4
  %26 = call i32 (i8*, ...) @printf(i8* getelementptr inbounds ([5 x i8], [5 x i8]* @.str.1, i64 0, i64 0), i32 %24, i32 %25)
  br label %65

27:                                               ; preds = %18, %15
  %28 = load i32, i32* %2, align 4
  %29 = icmp sgt i32 %28, 99
  br i1 %29, label %30, label %43

30:                                               ; preds = %27
  %31 = load i32, i32* %2, align 4
  %32 = icmp slt i32 %31, 1000
  br i1 %32, label %33, label %43

33:                                               ; preds = %30
  %34 = load i32, i32* %2, align 4
  %35 = sdiv i32 %34, 10
  %36 = srem i32 %35, 10
  store i32 %36, i32* %4, align 4
  %37 = load i32, i32* %2, align 4
  %38 = sdiv i32 %37, 100
  store i32 %38, i32* %5, align 4
  %39 = load i32, i32* %3, align 4
  %40 = load i32, i32* %4, align 4
  %41 = load i32, i32* %5, align 4
  %42 = call i32 (i8*, ...) @printf(i8* getelementptr inbounds ([7 x i8], [7 x i8]* @.str.2, i64 0, i64 0), i32 %39, i32 %40, i32 %41)
  br label %64

43:                                               ; preds = %30, %27
  %44 = load i32, i32* %2, align 4
  %45 = icmp sgt i32 %44, 999
  br i1 %45, label %46, label %63

46:                                               ; preds = %43
  %47 = load i32, i32* %2, align 4
  %48 = icmp slt i32 %47, 10000
  br i1 %48, label %49, label %63

49:                                               ; preds = %46
  %50 = load i32, i32* %2, align 4
  %51 = sdiv i32 %50, 10
  %52 = srem i32 %51, 10
  store i32 %52, i32* %4, align 4
  %53 = load i32, i32* %2, align 4
  %54 = sdiv i32 %53, 100
  %55 = srem i32 %54, 10
  store i32 %55, i32* %5, align 4
  %56 = load i32, i32* %2, align 4
  %57 = sdiv i32 %56, 1000
  store i32 %57, i32* %6, align 4
  %58 = load i32, i32* %3, align 4
  %59 = load i32, i32* %4, align 4
  %60 = load i32, i32* %5, align 4
  %61 = load i32, i32* %6, align 4
  %62 = call i32 (i8*, ...) @printf(i8* getelementptr inbounds ([9 x i8], [9 x i8]* @.str.3, i64 0, i64 0), i32 %58, i32 %59, i32 %60, i32 %61)
  br label %63

63:                                               ; preds = %49, %46, %43
  br label %64

64:                                               ; preds = %63, %33
  br label %65

65:                                               ; preds = %64, %21
  br label %66

66:                                               ; preds = %65, %12
  ret i32 0
}

declare dso_local i32 @__isoc99_scanf(i8*, ...) #1

declare dso_local i32 @printf(i8*, ...) #1


!llvm.module.flags = !{!0}
!llvm.ident = !{!1}

!0 = !{i32 1, !"wchar_size", i32 4}
!1 = !{!"clang version 10.0.0-4ubuntu1 "}
